target datalayout = "e-m:e-p270:32:32-p271:32:32-p272:64:64-i64:64-i128:128-f80:128-n8:16:32:64-S128"
target triple = "x86_64-unknown-linux-gnu"

%struct.Type = type { i32, i32, i32, i8, i8, ptr, ptr, ptr, ptr, i32, ptr, ptr, ptr, i8, i8, ptr, ptr, i8, ptr }

@ty_int = dso_local global ptr @.compoundliteral.4, align 8
@ty_float = dso_local global ptr @.compoundliteral.10, align 8
@ty_double = dso_local global ptr @.compoundliteral.11, align 8
@ty_ldouble = dso_local global ptr @.compoundliteral.12, align 8

; Function Attrs: nounwind uwtable
define internal ptr @new_type(i32 noundef %kind, i32 noundef %size, i32 noundef %align) #0 {
entry:
  %kind.addr = alloca i32, align 4
  %size.addr = alloca i32, align 4
  %align.addr = alloca i32, align 4
  %ty = alloca ptr, align 8
  store i32 %kind, ptr %kind.addr, align 4
  store i32 %size, ptr %size.addr, align 4
  store i32 %align, ptr %align.addr, align 4
  %call = call noalias ptr @calloc(i64 noundef 1, i64 noundef 120) #5
  store ptr %call, ptr %ty, align 8
  %0 = load i32, ptr %kind.addr, align 4
  %1 = load ptr, ptr %ty, align 8
  %kind1 = getelementptr inbounds %struct.Type, ptr %1, i32 0, i32 0
  store i32 %0, ptr %kind1, align 8
  %2 = load i32, ptr %size.addr, align 4
  %3 = load ptr, ptr %ty, align 8
  %size2 = getelementptr inbounds %struct.Type, ptr %3, i32 0, i32 1
  store i32 %2, ptr %size2, align 4
  %4 = load i32, ptr %align.addr, align 4
  %5 = load ptr, ptr %ty, align 8
  %align3 = getelementptr inbounds %struct.Type, ptr %5, i32 0, i32 2
  store i32 %4, ptr %align3, align 8
  %6 = load ptr, ptr %ty, align 8
  ret ptr %6
}

; Function Attrs: nounwind uwtable
define dso_local ptr @pointer_to(ptr noundef %base) #0 {
entry:
  %base.addr = alloca ptr, align 8
  %ty = alloca ptr, align 8
  store ptr %base, ptr %base.addr, align 8
  %call = call ptr @new_type(i32 noundef 10, i32 noundef 8, i32 noundef 8)
  store ptr %call, ptr %ty, align 8
  %0 = load ptr, ptr %base.addr, align 8
  %1 = load ptr, ptr %ty, align 8
  %base1 = getelementptr inbounds %struct.Type, ptr %1, i32 0, i32 6
  store ptr %0, ptr %base1, align 8
  %2 = load ptr, ptr %ty, align 8
  %is_unsigned = getelementptr inbounds %struct.Type, ptr %2, i32 0, i32 3
  store i8 1, ptr %is_unsigned, align 4
  %3 = load ptr, ptr %ty, align 8
  ret ptr %3
}

; Function Attrs: nounwind uwtable
define internal ptr @get_common_type(ptr noundef %ty1, ptr noundef %ty2) #0 {
entry:
  %retval = alloca ptr, align 8
  %ty1.addr = alloca ptr, align 8
  %ty2.addr = alloca ptr, align 8
  store ptr %ty1, ptr %ty1.addr, align 8
  store ptr %ty2, ptr %ty2.addr, align 8
  %0 = load ptr, ptr %ty1.addr, align 8
  %base = getelementptr inbounds %struct.Type, ptr %0, i32 0, i32 6
  %1 = load ptr, ptr %base, align 8
  %tobool = icmp ne ptr %1, null
  br i1 %tobool, label %if.then, label %if.end

if.then:                                          ; preds = %entry
  %2 = load ptr, ptr %ty1.addr, align 8
  %base1 = getelementptr inbounds %struct.Type, ptr %2, i32 0, i32 6
  %3 = load ptr, ptr %base1, align 8
  %call = call ptr @pointer_to(ptr noundef %3)
  store ptr %call, ptr %retval, align 8
  br label %return

if.end:                                           ; preds = %entry
  %4 = load ptr, ptr %ty1.addr, align 8
  %kind = getelementptr inbounds %struct.Type, ptr %4, i32 0, i32 0
  %5 = load i32, ptr %kind, align 8
  %cmp = icmp eq i32 %5, 11
  br i1 %cmp, label %if.then2, label %if.end4

if.then2:                                         ; preds = %if.end
  %6 = load ptr, ptr %ty1.addr, align 8
  %call3 = call ptr @pointer_to(ptr noundef %6)
  store ptr %call3, ptr %retval, align 8
  br label %return

if.end4:                                          ; preds = %if.end
  %7 = load ptr, ptr %ty2.addr, align 8
  %kind5 = getelementptr inbounds %struct.Type, ptr %7, i32 0, i32 0
  %8 = load i32, ptr %kind5, align 8
  %cmp6 = icmp eq i32 %8, 11
  br i1 %cmp6, label %if.then7, label %if.end9

if.then7:                                         ; preds = %if.end4
  %9 = load ptr, ptr %ty2.addr, align 8
  %call8 = call ptr @pointer_to(ptr noundef %9)
  store ptr %call8, ptr %retval, align 8
  br label %return

if.end9:                                          ; preds = %if.end4
  %10 = load ptr, ptr %ty1.addr, align 8
  %kind10 = getelementptr inbounds %struct.Type, ptr %10, i32 0, i32 0
  %11 = load i32, ptr %kind10, align 8
  %cmp11 = icmp eq i32 %11, 8
  br i1 %cmp11, label %if.then14, label %lor.lhs.false

lor.lhs.false:                                    ; preds = %if.end9
  %12 = load ptr, ptr %ty2.addr, align 8
  %kind12 = getelementptr inbounds %struct.Type, ptr %12, i32 0, i32 0
  %13 = load i32, ptr %kind12, align 8
  %cmp13 = icmp eq i32 %13, 8
  br i1 %cmp13, label %if.then14, label %if.end15

if.then14:                                        ; preds = %lor.lhs.false, %if.end9
  %14 = load ptr, ptr @ty_ldouble, align 8
  store ptr %14, ptr %retval, align 8
  br label %return

if.end15:                                         ; preds = %lor.lhs.false
  %15 = load ptr, ptr %ty1.addr, align 8
  %kind16 = getelementptr inbounds %struct.Type, ptr %15, i32 0, i32 0
  %16 = load i32, ptr %kind16, align 8
  %cmp17 = icmp eq i32 %16, 7
  br i1 %cmp17, label %if.then21, label %lor.lhs.false18

lor.lhs.false18:                                  ; preds = %if.end15
  %17 = load ptr, ptr %ty2.addr, align 8
  %kind19 = getelementptr inbounds %struct.Type, ptr %17, i32 0, i32 0
  %18 = load i32, ptr %kind19, align 8
  %cmp20 = icmp eq i32 %18, 7
  br i1 %cmp20, label %if.then21, label %if.end22

if.then21:                                        ; preds = %lor.lhs.false18, %if.end15
  %19 = load ptr, ptr @ty_double, align 8
  store ptr %19, ptr %retval, align 8
  br label %return

if.end22:                                         ; preds = %lor.lhs.false18
  %20 = load ptr, ptr %ty1.addr, align 8
  %kind23 = getelementptr inbounds %struct.Type, ptr %20, i32 0, i32 0
  %21 = load i32, ptr %kind23, align 8
  %cmp24 = icmp eq i32 %21, 6
  br i1 %cmp24, label %if.then28, label %lor.lhs.false25

lor.lhs.false25:                                  ; preds = %if.end22
  %22 = load ptr, ptr %ty2.addr, align 8
  %kind26 = getelementptr inbounds %struct.Type, ptr %22, i32 0, i32 0
  %23 = load i32, ptr %kind26, align 8
  %cmp27 = icmp eq i32 %23, 6
  br i1 %cmp27, label %if.then28, label %if.end29

if.then28:                                        ; preds = %lor.lhs.false25, %if.end22
  %24 = load ptr, ptr @ty_float, align 8
  store ptr %24, ptr %retval, align 8
  br label %return

if.end29:                                         ; preds = %lor.lhs.false25
  %25 = load ptr, ptr %ty1.addr, align 8
  %size = getelementptr inbounds %struct.Type, ptr %25, i32 0, i32 1
  %26 = load i32, ptr %size, align 4
  %cmp30 = icmp slt i32 %26, 4
  br i1 %cmp30, label %if.then31, label %if.end32

if.then31:                                        ; preds = %if.end29
  %27 = load ptr, ptr @ty_int, align 8
  store ptr %27, ptr %ty1.addr, align 8
  br label %if.end32

if.end32:                                         ; preds = %if.then31, %if.end29
  %28 = load ptr, ptr %ty2.addr, align 8
  %size33 = getelementptr inbounds %struct.Type, ptr %28, i32 0, i32 1
  %29 = load i32, ptr %size33, align 4
  %cmp34 = icmp slt i32 %29, 4
  br i1 %cmp34, label %if.then35, label %if.end36

if.then35:                                        ; preds = %if.end32
  %30 = load ptr, ptr @ty_int, align 8
  store ptr %30, ptr %ty2.addr, align 8
  br label %if.end36

if.end36:                                         ; preds = %if.then35, %if.end32
  %31 = load ptr, ptr %ty1.addr, align 8
  %size37 = getelementptr inbounds %struct.Type, ptr %31, i32 0, i32 1
  %32 = load i32, ptr %size37, align 4
  %33 = load ptr, ptr %ty2.addr, align 8
  %size38 = getelementptr inbounds %struct.Type, ptr %33, i32 0, i32 1
  %34 = load i32, ptr %size38, align 4
  %cmp39 = icmp ne i32 %32, %34
  br i1 %cmp39, label %if.then40, label %if.end44

if.then40:                                        ; preds = %if.end36
  %35 = load ptr, ptr %ty1.addr, align 8
  %size41 = getelementptr inbounds %struct.Type, ptr %35, i32 0, i32 1
  %36 = load i32, ptr %size41, align 4
  %37 = load ptr, ptr %ty2.addr, align 8
  %size42 = getelementptr inbounds %struct.Type, ptr %37, i32 0, i32 1
  %38 = load i32, ptr %size42, align 4
  %cmp43 = icmp slt i32 %36, %38
  br i1 %cmp43, label %cond.true, label %cond.false

cond.true:                                        ; preds = %if.then40
  %39 = load ptr, ptr %ty2.addr, align 8
  br label %cond.end

cond.false:                                       ; preds = %if.then40
  %40 = load ptr, ptr %ty1.addr, align 8
  br label %cond.end

cond.end:                                         ; preds = %cond.false, %cond.true
  %cond = phi ptr [ %39, %cond.true ], [ %40, %cond.false ]
  store ptr %cond, ptr %retval, align 8
  br label %return

if.end44:                                         ; preds = %if.end36
  %41 = load ptr, ptr %ty2.addr, align 8
  %is_unsigned = getelementptr inbounds %struct.Type, ptr %41, i32 0, i32 3
  %42 = load i8, ptr %is_unsigned, align 4
  %tobool45 = trunc i8 %42 to i1
  br i1 %tobool45, label %if.then46, label %if.end47

if.then46:                                        ; preds = %if.end44
  %43 = load ptr, ptr %ty2.addr, align 8
  store ptr %43, ptr %retval, align 8
  br label %return

if.end47:                                         ; preds = %if.end44
  %44 = load ptr, ptr %ty1.addr, align 8
  store ptr %44, ptr %retval, align 8
  br label %return

return:                                           ; preds = %if.end47, %if.then46, %cond.end, %if.then28, %if.then21, %if.then14, %if.then7, %if.then2, %if.then
  %45 = load ptr, ptr %retval, align 8
  ret ptr %45
}