; Function Attrs: mustprogress nofree nounwind willreturn memory(readwrite, argmem: read) uwtable
define internal fastcc ptr @get_common_type(ptr noundef %ty1, ptr noundef %ty2) unnamed_addr #8 {
entry:
  %base = getelementptr inbounds %struct.Type, ptr %ty1, i64 0, i32 6
  %0 = load ptr, ptr %base, align 8
  %tobool.not = icmp eq ptr %0, null
  br i1 %tobool.not, label %if.end, label %if.then

if.then:                                          ; preds = %entry
  %call.i.i = tail call noalias dereferenceable_or_null(120) ptr @calloc(i64 noundef 1, i64 noundef 120) #11
  store i32 10, ptr %call.i.i, align 8
  %size2.i.i = getelementptr inbounds %struct.Type, ptr %call.i.i, i64 0, i32 1
  store i32 8, ptr %size2.i.i, align 4
  %align3.i.i = getelementptr inbounds %struct.Type, ptr %call.i.i, i64 0, i32 2
  store i32 8, ptr %align3.i.i, align 8
  %base1.i = getelementptr inbounds %struct.Type, ptr %call.i.i, i64 0, i32 6
  store ptr %0, ptr %base1.i, align 8
  %is_unsigned.i = getelementptr inbounds %struct.Type, ptr %call.i.i, i64 0, i32 3
  store i8 1, ptr %is_unsigned.i, align 4
  br label %return

if.end:                                           ; preds = %entry
  %1 = load i32, ptr %ty1, align 8
  %cmp = icmp eq i32 %1, 11
  br i1 %cmp, label %if.then2, label %if.end4

if.then2:                                         ; preds = %if.end
  %call.i.i28 = tail call noalias dereferenceable_or_null(120) ptr @calloc(i64 noundef 1, i64 noundef 120) #11
  store i32 10, ptr %call.i.i28, align 8
  %size2.i.i29 = getelementptr inbounds %struct.Type, ptr %call.i.i28, i64 0, i32 1
  store i32 8, ptr %size2.i.i29, align 4
  %align3.i.i30 = getelementptr inbounds %struct.Type, ptr %call.i.i28, i64 0, i32 2
  store i32 8, ptr %align3.i.i30, align 8
  %base1.i31 = getelementptr inbounds %struct.Type, ptr %call.i.i28, i64 0, i32 6
  store ptr %ty1, ptr %base1.i31, align 8
  %is_unsigned.i32 = getelementptr inbounds %struct.Type, ptr %call.i.i28, i64 0, i32 3
  store i8 1, ptr %is_unsigned.i32, align 4
  br label %return

if.end4:                                          ; preds = %if.end
  %2 = load i32, ptr %ty2, align 8
  %cmp6 = icmp eq i32 %2, 11
  br i1 %cmp6, label %if.then7, label %if.end9

if.then7:                                         ; preds = %if.end4
  %call.i.i33 = tail call noalias dereferenceable_or_null(120) ptr @calloc(i64 noundef 1, i64 noundef 120) #11
  store i32 10, ptr %call.i.i33, align 8
  %size2.i.i34 = getelementptr inbounds %struct.Type, ptr %call.i.i33, i64 0, i32 1
  store i32 8, ptr %size2.i.i34, align 4
  %align3.i.i35 = getelementptr inbounds %struct.Type, ptr %call.i.i33, i64 0, i32 2
  store i32 8, ptr %align3.i.i35, align 8
  %base1.i36 = getelementptr inbounds %struct.Type, ptr %call.i.i33, i64 0, i32 6
  store ptr %ty2, ptr %base1.i36, align 8
  %is_unsigned.i37 = getelementptr inbounds %struct.Type, ptr %call.i.i33, i64 0, i32 3
  store i8 1, ptr %is_unsigned.i37, align 4
  br label %return

if.end9:                                          ; preds = %if.end4
  %cmp11 = icmp eq i32 %1, 8
  %cmp13 = icmp eq i32 %2, 8
  %or.cond = or i1 %cmp11, %cmp13
  br i1 %or.cond, label %if.then14, label %if.end15

if.then14:                                        ; preds = %if.end9
  %3 = load ptr, ptr @ty_ldouble, align 8
  br label %return

if.end15:                                         ; preds = %if.end9
  %cmp17 = icmp eq i32 %1, 7
  %cmp20 = icmp eq i32 %2, 7
  %or.cond26 = or i1 %cmp17, %cmp20
  br i1 %or.cond26, label %if.then21, label %if.end22

if.then21:                                        ; preds = %if.end15
  %4 = load ptr, ptr @ty_double, align 8
  br label %return

if.end22:                                         ; preds = %if.end15
  %cmp24 = icmp eq i32 %1, 6
  %cmp27 = icmp eq i32 %2, 6
  %or.cond27 = or i1 %cmp24, %cmp27
  br i1 %or.cond27, label %if.then28, label %if.end29

if.then28:                                        ; preds = %if.end22
  %5 = load ptr, ptr @ty_float, align 8
  br label %return

if.end29:                                         ; preds = %if.end22
  %size = getelementptr inbounds %struct.Type, ptr %ty1, i64 0, i32 1
  %6 = load i32, ptr %size, align 4
  %cmp30 = icmp slt i32 %6, 4
  %7 = load ptr, ptr @ty_int, align 8
  %spec.select = select i1 %cmp30, ptr %7, ptr %ty1
  %size33 = getelementptr inbounds %struct.Type, ptr %ty2, i64 0, i32 1
  %8 = load i32, ptr %size33, align 4
  %cmp34 = icmp slt i32 %8, 4
  %ty2.addr.0 = select i1 %cmp34, ptr %7, ptr %ty2
  %size37 = getelementptr inbounds %struct.Type, ptr %spec.select, i64 0, i32 1
  %9 = load i32, ptr %size37, align 4
  %size38 = getelementptr inbounds %struct.Type, ptr %ty2.addr.0, i64 0, i32 1
  %10 = load i32, ptr %size38, align 4
  %cmp39.not = icmp eq i32 %9, %10
  br i1 %cmp39.not, label %if.end44, label %if.then40

if.then40:                                        ; preds = %if.end29
  %cmp43 = icmp slt i32 %9, %10
  %cond = select i1 %cmp43, ptr %ty2.addr.0, ptr %spec.select
  br label %return

if.end44:                                         ; preds = %if.end29
  %is_unsigned = getelementptr inbounds %struct.Type, ptr %ty2.addr.0, i64 0, i32 3
  %11 = load i8, ptr %is_unsigned, align 4
  %12 = and i8 %11, 1
  %tobool45.not = icmp eq i8 %12, 0
  %spec.select.ty2.addr.0 = select i1 %tobool45.not, ptr %spec.select, ptr %ty2.addr.0
  br label %return

return:                                           ; preds = %if.end44, %if.then40, %if.then28, %if.then21, %if.then14, %if.then7, %if.then2, %if.then
  %retval.0 = phi ptr [ %call.i.i, %if.then ], [ %call.i.i28, %if.then2 ], [ %call.i.i33, %if.then7 ], [ %3, %if.then14 ], [ %4, %if.then21 ], [ %5, %if.then28 ], [ %cond, %if.then40 ], [ %spec.select.ty2.addr.0, %if.end44 ]
  ret ptr %retval.0
}